; ModuleID = '43/1774.c'
source_filename = "43/1774.c"
target datalayout = "e-m:e-p270:32:32-p271:32:32-p272:64:64-i64:64-f80:128-n8:16:32:64-S128"
target triple = "x86_64-pc-linux-gnu"

@.str = private unnamed_addr constant [3 x i8] c"%d\00", align 1
@.str.1 = private unnamed_addr constant [7 x i8] c"%d %d\0A\00", align 1

; Function Attrs: noinline nounwind uwtable
define dso_local i32 @main() #0 {
  %1 = alloca i32, align 4
  %2 = alloca i32, align 4
  %3 = alloca i32, align 4
  %4 = alloca i32, align 4
  %5 = alloca i32, align 4
  %6 = alloca i32, align 4
  store i32 0, i32* %1, align 4
  %7 = call i32 (i8*, ...) @__isoc99_scanf(i8* getelementptr inbounds ([3 x i8], [3 x i8]* @.str, i64 0, i64 0), i32* %2)
  store i32 3, i32* %3, align 4
  br label %8

8:                                                ; preds = %60, %0
  %9 = load i32, i32* %3, align 4
  %10 = mul nsw i32 %9, 2
  %11 = load i32, i32* %2, align 4
  %12 = icmp sle i32 %10, %11
  br i1 %12, label %13, label %63

13:                                               ; preds = %8
  store i32 1, i32* %6, align 4
  store i32 3, i32* %5, align 4
  br label %14

14:                                               ; preds = %26, %13
  %15 = load i32, i32* %5, align 4
  %16 = mul nsw i32 %15, 3
  %17 = load i32, i32* %3, align 4
  %18 = icmp sle i32 %16, %17
  br i1 %18, label %19, label %29

19:                                               ; preds = %14
  %20 = load i32, i32* %3, align 4
  %21 = load i32, i32* %5, align 4
  %22 = srem i32 %20, %21
  %23 = icmp eq i32 %22, 0
  br i1 %23, label %24, label %25

24:                                               ; preds = %19
  store i32 0, i32* %6, align 4
  br label %25

25:                                               ; preds = %24, %19
  br label %26

26:                                               ; preds = %25
  %27 = load i32, i32* %5, align 4
  %28 = add nsw i32 %27, 2
  store i32 %28, i32* %5, align 4
  br label %14

29:                                               ; preds = %14
  %30 = load i32, i32* %6, align 4
  %31 = icmp ne i32 %30, 0
  br i1 %31, label %32, label %52

32:                                               ; preds = %29
  %33 = load i32, i32* %2, align 4
  %34 = load i32, i32* %3, align 4
  %35 = sub nsw i32 %33, %34
  store i32 %35, i32* %4, align 4
  store i32 3, i32* %5, align 4
  br label %36

36:                                               ; preds = %48, %32
  %37 = load i32, i32* %5, align 4
  %38 = mul nsw i32 %37, 3
  %39 = load i32, i32* %4, align 4
  %40 = icmp sle i32 %38, %39
  br i1 %40, label %41, label %51

41:                                               ; preds = %36
  %42 = load i32, i32* %4, align 4
  %43 = load i32, i32* %5, align 4
  %44 = srem i32 %42, %43
  %45 = icmp eq i32 %44, 0
  br i1 %45, label %46, label %47

46:                                               ; preds = %41
  store i32 0, i32* %6, align 4
  br label %47

47:                                               ; preds = %46, %41
  br label %48

48:                                               ; preds = %47
  %49 = load i32, i32* %5, align 4
  %50 = add nsw i32 %49, 2
  store i32 %50, i32* %5, align 4
  br label %36

51:                                               ; preds = %36
  br label %52

52:                                               ; preds = %51, %29
  %53 = load i32, i32* %6, align 4
  %54 = icmp ne i32 %53, 0
  br i1 %54, label %55, label %59

55:                                               ; preds = %52
  %56 = load i32, i32* %3, align 4
  %57 = load i32, i32* %4, align 4
  %58 = call i32 (i8*, ...) @printf(i8* getelementptr inbounds ([7 x i8], [7 x i8]* @.str.1, i64 0, i64 0), i32 %56, i32 %57)
  br label %59

59:                                               ; preds = %55, %52
  br label %60

60:                                               ; preds = %59
  %61 = load i32, i32* %3, align 4
  %62 = add nsw i32 %61, 2
  store i32 %62, i32* %3, align 4
  br label %8

63:                                               ; preds = %8
  ret i32 0
}

declare dso_local i32 @__isoc99_scanf(i8*, ...) #1

declare dso_local i32 @printf(i8*, ...) #1


!llvm.module.flags = !{!0}
!llvm.ident = !{!1}

!0 = !{i32 1, !"wchar_size", i32 4}
!1 = !{!"clang version 10.0.0-4ubuntu1 "}
